target datalayout = "e-m:e-p270:32:32-p271:32:32-p272:64:64-i64:64-i128:128-f80:128-n8:16:32:64-S128"
target triple = "x86_64-pc-linux-gnu"

%struct.Vec_Wrd_t_ = type { i32, i32, ptr }

; Function Attrs: inlinehint nounwind uwtable
define internal i64 @Vec_WrdEntry(ptr noundef %0, i32 noundef %1) #1 {
  %3 = alloca ptr, align 8
  %4 = alloca i32, align 4
  store ptr %0, ptr %3, align 8, !tbaa !136
  store i32 %1, ptr %4, align 4, !tbaa !12
  %5 = load ptr, ptr %3, align 8, !tbaa !136
  %6 = getelementptr inbounds nuw %struct.Vec_Wrd_t_, ptr %5, i32 0, i32 2
  %7 = load ptr, ptr %6, align 8, !tbaa !146
  %8 = load i32, ptr %4, align 4, !tbaa !12
  %9 = sext i32 %8 to i64
  %10 = getelementptr inbounds i64, ptr %7, i64 %9
  %11 = load i64, ptr %10, align 8, !tbaa !139
  ret i64 %11
}

; Function Attrs: inlinehint nounwind uwtable
define internal i32 @Vec_WrdSize(ptr noundef %0) #1 {
  %2 = alloca ptr, align 8
  store ptr %0, ptr %2, align 8, !tbaa !136
  %3 = load ptr, ptr %2, align 8, !tbaa !136
  %4 = getelementptr inbounds nuw %struct.Vec_Wrd_t_, ptr %3, i32 0, i32 1
  %5 = load i32, ptr %4, align 4, !tbaa !142
  ret i32 %5
}

; Function Attrs: nounwind uwtable
define i32 @Gia_ManMulFindGetArg(ptr noundef %0, i32 noundef %1, i32 noundef %2) #0 {
  %4 = alloca ptr, align 8
  %5 = alloca i32, align 4
  %6 = alloca i32, align 4
  %7 = alloca i32, align 4
  %8 = alloca i32, align 4
  %9 = alloca i64, align 8
  store ptr %0, ptr %4, align 8, !tbaa !136
  store i32 %1, ptr %5, align 4, !tbaa !12
  store i32 %2, ptr %6, align 4, !tbaa !12
  call void @llvm.lifetime.start.p0(i64 4, ptr %7) #10
  call void @llvm.lifetime.start.p0(i64 4, ptr %8) #10
  store i32 0, ptr %8, align 4, !tbaa !12
  call void @llvm.lifetime.start.p0(i64 8, ptr %9) #10
  store i64 0, ptr %9, align 8, !tbaa !139
  store i32 0, ptr %7, align 4, !tbaa !12
  br label %10

10:                                               ; preds = %34, %3
  %11 = load i32, ptr %7, align 4, !tbaa !12
  %12 = load ptr, ptr %4, align 8, !tbaa !136
  %13 = call i32 @Vec_WrdSize(ptr noundef %12)
  %14 = icmp slt i32 %11, %13
  br i1 %14, label %15, label %19

15:                                               ; preds = %10
  %16 = load ptr, ptr %4, align 8, !tbaa !136
  %17 = load i32, ptr %7, align 4, !tbaa !12
  %18 = call i64 @Vec_WrdEntry(ptr noundef %16, i32 noundef %17)
  store i64 %18, ptr %9, align 8, !tbaa !139
  br label %19

19:                                               ; preds = %15, %10
  %20 = phi i1 [ false, %10 ], [ true, %15 ]
  br i1 %20, label %21, label %37

21:                                               ; preds = %19
  %22 = load i64, ptr %9, align 8, !tbaa !139
  %23 = load i32, ptr %5, align 4, !tbaa !12
  %24 = zext i32 %23 to i64
  %25 = lshr i64 %22, %24
  %26 = and i64 %25, 1
  %27 = icmp ne i64 %26, 0
  br i1 %27, label %28, label %33

28:                                               ; preds = %21
  %29 = load i32, ptr %7, align 4, !tbaa !12
  %30 = shl i32 1, %29
  %31 = load i32, ptr %8, align 4, !tbaa !12
  %32 = or i32 %31, %30
  store i32 %32, ptr %8, align 4, !tbaa !12
  br label %33

33:                                               ; preds = %28, %21
  br label %34

34:                                               ; preds = %33
  %35 = load i32, ptr %7, align 4, !tbaa !12
  %36 = add nsw i32 %35, 1
  store i32 %36, ptr %7, align 4, !tbaa !12
  br label %10, !llvm.loop !147

37:                                               ; preds = %19
  %38 = load i32, ptr %6, align 4, !tbaa !12
  %39 = icmp ne i32 %38, 0
  br i1 %39, label %40, label %53

40:                                               ; preds = %37
  %41 = load i64, ptr %9, align 8, !tbaa !139
  %42 = load i32, ptr %5, align 4, !tbaa !12
  %43 = zext i32 %42 to i64
  %44 = lshr i64 %41, %43
  %45 = and i64 %44, 1
  %46 = icmp ne i64 %45, 0
  br i1 %46, label %47, label %53

47:                                               ; preds = %40
  %48 = load ptr, ptr %4, align 8, !tbaa !136
  %49 = call i32 @Vec_WrdSize(ptr noundef %48)
  %50 = shl i32 -1, %49
  %51 = load i32, ptr %8, align 4, !tbaa !12
  %52 = or i32 %51, %50
  store i32 %52, ptr %8, align 4, !tbaa !12
  br label %53

53:                                               ; preds = %47, %40, %37
  %54 = load i32, ptr %8, align 4, !tbaa !12
  call void @llvm.lifetime.end.p0(i64 8, ptr %9) #10
  call void @llvm.lifetime.end.p0(i64 4, ptr %8) #10
  call void @llvm.lifetime.end.p0(i64 4, ptr %7) #10
  ret i32 %54
}