; Function Attrs: nofree norecurse nosync nounwind memory(read, inaccessiblemem: none) uwtable
define i32 @Gia_ManMulFindGetArg(ptr noundef readonly captures(none) %0, i32 noundef %1, i32 noundef %2) local_unnamed_addr #4 {
  %4 = getelementptr i8, ptr %0, i64 4
  %.val18 = load i32, ptr %4, align 4, !tbaa !133
  %5 = icmp sgt i32 %.val18, 0
  br i1 %5, label %.lr.ph, label %.critedge

.lr.ph:                                           ; preds = %3
  %6 = getelementptr i8, ptr %0, i64 8
  %.val = load ptr, ptr %6, align 8, !tbaa !137
  %7 = zext nneg i32 %1 to i64
  %8 = shl nuw i64 1, %7
  %wide.trip.count = zext nneg i32 %.val18 to i64
  br label %9

9:                                                ; preds = %.lr.ph, %9
  %indvars.iv = phi i64 [ 0, %.lr.ph ], [ %indvars.iv.next, %9 ]
  %.01421 = phi i32 [ 0, %.lr.ph ], [ %.1, %9 ]
  %10 = getelementptr inbounds nuw i64, ptr %.val, i64 %indvars.iv
  %11 = load i64, ptr %10, align 8, !tbaa !138
  %12 = and i64 %11, %8
  %.not17 = icmp eq i64 %12, 0
  %13 = trunc nuw nsw i64 %indvars.iv to i32
  %14 = shl nuw i32 1, %13
  %15 = select i1 %.not17, i32 0, i32 %14
  %.1 = or i32 %15, %.01421
  %indvars.iv.next = add nuw nsw i64 %indvars.iv, 1
  %exitcond.not = icmp eq i64 %indvars.iv.next, %wide.trip.count
  br i1 %exitcond.not, label %.critedge, label %9, !llvm.loop !143

.critedge:                                        ; preds = %9, %3
  %.014.lcssa = phi i32 [ 0, %3 ], [ %.1, %9 ]
  %.0.lcssa = phi i64 [ 0, %3 ], [ %11, %9 ]
  %.not = icmp eq i32 %2, 0
  br i1 %.not, label %23, label %16

16:                                               ; preds = %.critedge
  %17 = zext nneg i32 %1 to i64
  %18 = shl nuw i64 1, %17
  %19 = and i64 %.0.lcssa, %18
  %.not16 = icmp eq i64 %19, 0
  br i1 %.not16, label %23, label %20

20:                                               ; preds = %16
  %21 = shl nsw i32 -1, %.val18
  %22 = or i32 %21, %.014.lcssa
  br label %23

23:                                               ; preds = %20, %16, %.critedge
  %.2 = phi i32 [ %22, %20 ], [ %.014.lcssa, %16 ], [ %.014.lcssa, %.critedge ]
  ret i32 %.2
}